target datalayout = "e-m:e-p270:32:32-p271:32:32-p272:64:64-i64:64-i128:128-f80:128-n8:16:32:64-S128"
target triple = "x86_64-unknown-linux-gnu"

%"class.std::__cxx11::basic_string" = type { %"struct.std::__cxx11::basic_string<char>::_Alloc_hider", i64, %union.anon }
%"struct.std::__cxx11::basic_string<char>::_Alloc_hider" = type { ptr }
%union.anon = type { i64, [8 x i8] }
%"class.proxygen::HTTP2Codec" = type <{ %"class.proxygen::HTTPParallelCodec.base", [4 x i8], %"class.proxygen::HPACK::StreamingCallback", %"class.proxygen::HPACKCodec", %"struct.proxygen::http2::FrameHeader", [4 x i8], i64, %"class.folly::Optional", i8, i8, i8, [5 x i8], %"class.std::unordered_set", i16, [6 x i8], %"class.folly::IOBufQueue", %"class.folly::IOBufQueue", %"class.proxygen::HTTPSettings", %"class.proxygen::HTTPSettings", i8, [7 x i8], %"class.std::__cxx11::basic_string", i64, i64, %"class.proxygen::HeaderDecodeInfo", %"class.std::vector.39", %"class.folly::Optional.37", i8, i8, i8, i8, i8, i8, [2 x i8] }>
%"class.proxygen::HTTPParallelCodec.base" = type <{ %"class.proxygen::HTTPCodec", i8, [7 x i8], i64, i64, ptr, i64, i64, %"class.std::__cxx11::basic_string", i32 }>
%"class.proxygen::HTTPCodec" = type { ptr }
%"class.proxygen::HPACK::StreamingCallback" = type { ptr, ptr }
%"class.proxygen::HPACKCodec" = type { %"class.proxygen::HeaderCodec", %"class.proxygen::HPACKEncoder", %"class.proxygen::HPACKDecoder", %"class.std::vector" }
%"class.proxygen::HeaderCodec" = type { ptr, %"struct.proxygen::HTTPHeaderSize", i32, i64, ptr }
%"struct.proxygen::HTTPHeaderSize" = type { i32, i32, i32 }
%"class.proxygen::HPACKEncoder" = type { %"class.proxygen::HPACKEncoderBase.base", [7 x i8], %"class.proxygen::HPACKContext.base", [4 x i8] }
%"class.proxygen::HPACKEncoderBase.base" = type <{ ptr, %"class.proxygen::HPACKEncodeBuffer", i8 }>
%"class.proxygen::HPACKEncodeBuffer" = type <{ %"class.folly::IOBufQueue", ptr, %"class.folly::io::QueueAppender", i32, i32, i32, [4 x i8] }>
%"class.folly::io::QueueAppender" = type { %"class.folly::IOBufQueue::WritableRangeCache", i64 }
%"class.folly::IOBufQueue::WritableRangeCache" = type { %"struct.folly::IOBufQueue::WritableRangeCacheData", ptr }
%"struct.folly::IOBufQueue::WritableRangeCacheData" = type <{ %"struct.std::pair", i8, [7 x i8] }>
%"struct.std::pair" = type { ptr, ptr }
%"class.proxygen::HPACKContext.base" = type <{ %"class.proxygen::HeaderTable", i32 }>
%"class.proxygen::HeaderTable" = type { ptr, i32, i32, %"class.std::vector", i32, i32, i32, i8, %"class.folly::F14FastMap" }
%"class.folly::F14FastMap" = type { %"class.folly::f14::detail::F14VectorMapImpl" }
%"class.folly::f14::detail::F14VectorMapImpl" = type { %"class.folly::f14::detail::F14BasicMap" }
%"class.folly::f14::detail::F14BasicMap" = type { %"class.folly::f14::detail::F14Table" }
%"class.folly::f14::detail::F14Table" = type { %"class.folly::f14::detail::VectorContainerPolicy", ptr, %"struct.folly::f14::detail::SizeAndChunkShiftAndPackedBegin" }
%"class.folly::f14::detail::VectorContainerPolicy" = type { ptr }
%"struct.folly::f14::detail::SizeAndChunkShiftAndPackedBegin" = type { %"struct.folly::f14::detail::PackedSizeAndChunkShift" }
%"struct.folly::f14::detail::PackedSizeAndChunkShift" = type { i64 }
%"class.proxygen::HPACKDecoder" = type <{ %"class.proxygen::HPACKDecoderBase", %"class.proxygen::HPACKContext.base", [4 x i8] }>
%"class.proxygen::HPACKDecoderBase" = type { i8, i32, i64 }
%"class.std::vector" = type { %"struct.std::_Vector_base" }
%"struct.std::_Vector_base" = type { %"struct.std::_Vector_base<proxygen::HPACKHeader, std::allocator<proxygen::HPACKHeader>>::_Vector_impl" }
%"struct.std::_Vector_base<proxygen::HPACKHeader, std::allocator<proxygen::HPACKHeader>>::_Vector_impl" = type { %"struct.std::_Vector_base<proxygen::HPACKHeader, std::allocator<proxygen::HPACKHeader>>::_Vector_impl_data" }
%"struct.std::_Vector_base<proxygen::HPACKHeader, std::allocator<proxygen::HPACKHeader>>::_Vector_impl_data" = type { ptr, ptr, ptr }
%"struct.proxygen::http2::FrameHeader" = type { i32, i32, i8, i8, i16 }
%"class.folly::Optional" = type { %"struct.folly::Optional<unsigned long>::StorageTriviallyDestructible" }
%"struct.folly::Optional<unsigned long>::StorageTriviallyDestructible" = type <{ %union.anon.15, i8, [7 x i8] }>
%union.anon.15 = type { i64 }
%"class.std::unordered_set" = type { %"class.std::_Hashtable" }
%"class.std::_Hashtable" = type { ptr, i64, %"struct.std::__detail::_Hash_node_base", i64, %"struct.std::__detail::_Prime_rehash_policy", ptr }
%"struct.std::__detail::_Hash_node_base" = type { ptr }
%"struct.std::__detail::_Prime_rehash_policy" = type { float, i64 }
%"class.folly::IOBufQueue" = type { %"struct.folly::IOBufQueue::Options", i64, %"class.std::unique_ptr", ptr, ptr, %"struct.folly::IOBufQueue::WritableRangeCacheData", ptr }
%"struct.folly::IOBufQueue::Options" = type { i8 }
%"class.std::unique_ptr" = type { %"struct.std::__uniq_ptr_data" }
%"struct.std::__uniq_ptr_data" = type { %"class.std::__uniq_ptr_impl" }
%"class.std::__uniq_ptr_impl" = type { %"class.std::tuple" }
%"class.std::tuple" = type { %"struct.std::_Tuple_impl" }
%"struct.std::_Tuple_impl" = type { %"struct.std::_Head_base.6" }
%"struct.std::_Head_base.6" = type { ptr }
%"class.proxygen::HTTPSettings" = type { %"class.std::vector.24" }
%"class.std::vector.24" = type { %"struct.std::_Vector_base.25" }
%"struct.std::_Vector_base.25" = type { %"struct.std::_Vector_base<proxygen::HTTPSetting, std::allocator<proxygen::HTTPSetting>>::_Vector_impl" }
%"struct.std::_Vector_base<proxygen::HTTPSetting, std::allocator<proxygen::HTTPSetting>>::_Vector_impl" = type { %"struct.std::_Vector_base<proxygen::HTTPSetting, std::allocator<proxygen::HTTPSetting>>::_Vector_impl_data" }
%"struct.std::_Vector_base<proxygen::HTTPSetting, std::allocator<proxygen::HTTPSetting>>::_Vector_impl_data" = type { ptr, ptr, ptr }
%"class.proxygen::HeaderDecodeInfo" = type <{ %"class.std::unique_ptr.29", %"class.proxygen::HTTPRequestVerifier", %"class.std::__cxx11::basic_string", %"class.std::__cxx11::basic_string", i8, i8, i8, i8, i8, i8, i8, i8, i8, [3 x i8], %"class.folly::Optional.37", [4 x i8] }>
%"class.std::unique_ptr.29" = type { %"struct.std::__uniq_ptr_data.30" }
%"struct.std::__uniq_ptr_data.30" = type { %"class.std::__uniq_ptr_impl.31" }
%"class.std::__uniq_ptr_impl.31" = type { %"class.std::tuple.32" }
%"class.std::tuple.32" = type { %"struct.std::_Tuple_impl.33" }
%"struct.std::_Tuple_impl.33" = type { %"struct.std::_Head_base.36" }
%"struct.std::_Head_base.36" = type { ptr }
%"class.proxygen::HTTPRequestVerifier" = type <{ %"class.std::__cxx11::basic_string", ptr, i8, i8, i8, i8, i8, [3 x i8] }>
%"class.std::vector.39" = type { %"struct.std::_Vector_base.40" }
%"struct.std::_Vector_base.40" = type { %"struct.std::_Vector_base<unsigned long, std::allocator<unsigned long>>::_Vector_impl" }
%"struct.std::_Vector_base<unsigned long, std::allocator<unsigned long>>::_Vector_impl" = type { %"struct.std::_Vector_base<unsigned long, std::allocator<unsigned long>>::_Vector_impl_data" }
%"struct.std::_Vector_base<unsigned long, std::allocator<unsigned long>>::_Vector_impl_data" = type { ptr, ptr, ptr }
%"class.folly::Optional.37" = type { %"struct.folly::Optional<unsigned int>::StorageTriviallyDestructible" }
%"struct.folly::Optional<unsigned int>::StorageTriviallyDestructible" = type <{ %union.anon.38, i8, [3 x i8] }>
%union.anon.38 = type { i32 }

@.str.16 = private unnamed_addr constant [18 x i8] c"onMessageComplete\00", align 1

; Function Attrs: mustprogress uwtable
define noundef zeroext i8 @_ZN8proxygen10HTTP2Codec15handleEndStreamEv(ptr noundef nonnull align 8 dereferenceable(1062) %this) #4 align 2 {
entry:
  %retval = alloca i8, align 1
  %this.addr = alloca ptr, align 8
  %ref.tmp = alloca i8, align 1
  %coerce = alloca { i64, i64 }, align 8
  %ref.tmp31 = alloca i8, align 1
  %coerce32 = alloca { i64, i64 }, align 8
  store ptr %this, ptr %this.addr, align 8
  %this1 = load ptr, ptr %this.addr, align 8
  %curHeader_ = getelementptr inbounds %"class.proxygen::HTTP2Codec", ptr %this1, i32 0, i32 4
  %type = getelementptr inbounds %"struct.proxygen::http2::FrameHeader", ptr %curHeader_, i32 0, i32 2
  %0 = load i8, ptr %type, align 8
  %cmp = icmp ne i8 %0, 1
  br i1 %cmp, label %land.lhs.true, label %if.end

land.lhs.true:                                    ; preds = %entry
  %curHeader_2 = getelementptr inbounds %"class.proxygen::HTTP2Codec", ptr %this1, i32 0, i32 4
  %type3 = getelementptr inbounds %"struct.proxygen::http2::FrameHeader", ptr %curHeader_2, i32 0, i32 2
  %1 = load i8, ptr %type3, align 8
  %cmp4 = icmp ne i8 %1, -5
  br i1 %cmp4, label %land.lhs.true5, label %if.end

land.lhs.true5:                                   ; preds = %land.lhs.true
  %curHeader_6 = getelementptr inbounds %"class.proxygen::HTTP2Codec", ptr %this1, i32 0, i32 4
  %type7 = getelementptr inbounds %"struct.proxygen::http2::FrameHeader", ptr %curHeader_6, i32 0, i32 2
  %2 = load i8, ptr %type7, align 8
  %cmp8 = icmp ne i8 %2, 9
  br i1 %cmp8, label %land.lhs.true9, label %if.end

land.lhs.true9:                                   ; preds = %land.lhs.true5
  %curHeader_10 = getelementptr inbounds %"class.proxygen::HTTP2Codec", ptr %this1, i32 0, i32 4
  %type11 = getelementptr inbounds %"struct.proxygen::http2::FrameHeader", ptr %curHeader_10, i32 0, i32 2
  %3 = load i8, ptr %type11, align 8
  %cmp12 = icmp ne i8 %3, 0
  br i1 %cmp12, label %if.then, label %if.end

if.then:                                          ; preds = %land.lhs.true9
  store i8 0, ptr %retval, align 1
  br label %return

if.end:                                           ; preds = %land.lhs.true9, %land.lhs.true5, %land.lhs.true, %entry
  %curHeader_13 = getelementptr inbounds %"class.proxygen::HTTP2Codec", ptr %this1, i32 0, i32 4
  %flags = getelementptr inbounds %"struct.proxygen::http2::FrameHeader", ptr %curHeader_13, i32 0, i32 3
  %4 = load i8, ptr %flags, align 1
  %conv = zext i8 %4 to i32
  %and = and i32 %conv, 1
  %pendingEndStreamHandling_ = getelementptr inbounds %"class.proxygen::HTTP2Codec", ptr %this1, i32 0, i32 9
  %5 = load i8, ptr %pendingEndStreamHandling_, align 1
  %tobool = trunc i8 %5 to i1
  %conv14 = zext i1 %tobool to i32
  %or = or i32 %conv14, %and
  %tobool15 = icmp ne i32 %or, 0
  %frombool = zext i1 %tobool15 to i8
  store i8 %frombool, ptr %pendingEndStreamHandling_, align 1
  %ingressWebsocketUpgrade_ = getelementptr inbounds %"class.proxygen::HTTP2Codec", ptr %this1, i32 0, i32 10
  %6 = load i8, ptr %ingressWebsocketUpgrade_, align 2
  %tobool16 = trunc i8 %6 to i1
  br i1 %tobool16, label %if.then17, label %if.end21

if.then17:                                        ; preds = %if.end
  %ingressWebsocketUpgrade_18 = getelementptr inbounds %"class.proxygen::HTTP2Codec", ptr %this1, i32 0, i32 10
  store i8 0, ptr %ingressWebsocketUpgrade_18, align 2
  %curHeader_19 = getelementptr inbounds %"class.proxygen::HTTP2Codec", ptr %this1, i32 0, i32 4
  %stream = getelementptr inbounds %"struct.proxygen::http2::FrameHeader", ptr %curHeader_19, i32 0, i32 1
  %7 = load i32, ptr %stream, align 4
  %conv20 = zext i32 %7 to i64
  store i8 1, ptr %ref.tmp, align 1
  store { i64, i64 } { i64 65, i64 0 }, ptr %coerce, align 8
  %8 = getelementptr inbounds { i64, i64 }, ptr %coerce, i32 0, i32 0
  %9 = load i64, ptr %8, align 8
  %10 = getelementptr inbounds { i64, i64 }, ptr %coerce, i32 0, i32 1
  %11 = load i64, ptr %10, align 8
  %call = call noundef zeroext i1 @_ZN8proxygen17HTTPParallelCodec24deliverCallbackIfAllowedIMNS_9HTTPCodec8CallbackEFvmbEJbEEEbT_PKcmDpOT0_(ptr noundef nonnull align 8 dereferenceable(92) %this1, i64 %9, i64 %11, ptr noundef @.str.16, i64 noundef %conv20, ptr noundef nonnull align 1 dereferenceable(1) %ref.tmp)
  br label %if.end21

if.end21:                                         ; preds = %if.then17, %if.end
  %pendingEndStreamHandling_22 = getelementptr inbounds %"class.proxygen::HTTP2Codec", ptr %this1, i32 0, i32 9
  %12 = load i8, ptr %pendingEndStreamHandling_22, align 1
  %tobool23 = trunc i8 %12 to i1
  br i1 %tobool23, label %land.lhs.true24, label %if.end34

land.lhs.true24:                                  ; preds = %if.end21
  %expectedContinuationStream_ = getelementptr inbounds %"class.proxygen::HTTP2Codec", ptr %this1, i32 0, i32 6
  %13 = load i64, ptr %expectedContinuationStream_, align 8
  %cmp25 = icmp eq i64 %13, 0
  br i1 %cmp25, label %if.then26, label %if.end34

if.then26:                                        ; preds = %land.lhs.true24
  %pendingEndStreamHandling_27 = getelementptr inbounds %"class.proxygen::HTTP2Codec", ptr %this1, i32 0, i32 9
  store i8 0, ptr %pendingEndStreamHandling_27, align 1
  %curHeader_28 = getelementptr inbounds %"class.proxygen::HTTP2Codec", ptr %this1, i32 0, i32 4
  %stream29 = getelementptr inbounds %"struct.proxygen::http2::FrameHeader", ptr %curHeader_28, i32 0, i32 1
  %14 = load i32, ptr %stream29, align 4
  %conv30 = zext i32 %14 to i64
  store i8 0, ptr %ref.tmp31, align 1
  store { i64, i64 } { i64 65, i64 0 }, ptr %coerce32, align 8
  %15 = getelementptr inbounds { i64, i64 }, ptr %coerce32, i32 0, i32 0
  %16 = load i64, ptr %15, align 8
  %17 = getelementptr inbounds { i64, i64 }, ptr %coerce32, i32 0, i32 1
  %18 = load i64, ptr %17, align 8
  %call33 = call noundef zeroext i1 @_ZN8proxygen17HTTPParallelCodec24deliverCallbackIfAllowedIMNS_9HTTPCodec8CallbackEFvmbEJbEEEbT_PKcmDpOT0_(ptr noundef nonnull align 8 dereferenceable(92) %this1, i64 %16, i64 %18, ptr noundef @.str.16, i64 noundef %conv30, ptr noundef nonnull align 1 dereferenceable(1) %ref.tmp31)
  br label %if.end34

if.end34:                                         ; preds = %if.then26, %land.lhs.true24, %if.end21
  store i8 0, ptr %retval, align 1
  br label %return

return:                                           ; preds = %if.end34, %if.then
  %19 = load i8, ptr %retval, align 1
  ret i8 %19
}