; Function Attrs: mustprogress uwtable
define noundef zeroext i8 @_ZN8proxygen10HTTP2Codec15handleEndStreamEv(ptr noundef nonnull align 8 dereferenceable(1062) %this) local_unnamed_addr #3 align 2 {
entry:
  %ref.tmp = alloca i8, align 1
  %ref.tmp31 = alloca i8, align 1
  %type = getelementptr inbounds i8, ptr %this, i64 528
  %0 = load i8, ptr %type, align 8
  switch i8 %0, label %return [
    i8 1, label %if.end
    i8 -5, label %if.end
    i8 9, label %if.end
    i8 0, label %if.end
  ]

if.end:                                           ; preds = %entry, %entry, %entry, %entry
  %flags = getelementptr inbounds i8, ptr %this, i64 529
  %1 = load i8, ptr %flags, align 1
  %pendingEndStreamHandling_ = getelementptr inbounds i8, ptr %this, i64 561
  %2 = load i8, ptr %pendingEndStreamHandling_, align 1
  %3 = or i8 %2, %1
  %or1 = and i8 %3, 1
  store i8 %or1, ptr %pendingEndStreamHandling_, align 1
  %ingressWebsocketUpgrade_ = getelementptr inbounds i8, ptr %this, i64 562
  %4 = load i8, ptr %ingressWebsocketUpgrade_, align 2
  %5 = and i8 %4, 1
  %tobool16.not = icmp eq i8 %5, 0
  br i1 %tobool16.not, label %if.end21, label %if.then17

if.then17:                                        ; preds = %if.end
  store i8 0, ptr %ingressWebsocketUpgrade_, align 2
  %stream = getelementptr inbounds i8, ptr %this, i64 524
  %6 = load i32, ptr %stream, align 4
  %conv20 = zext i32 %6 to i64
  store i8 1, ptr %ref.tmp, align 1
  %call = call noundef zeroext i1 @_ZN8proxygen17HTTPParallelCodec24deliverCallbackIfAllowedIMNS_9HTTPCodec8CallbackEFvmbEJbEEEbT_PKcmDpOT0_(ptr noundef nonnull align 8 dereferenceable(92) %this, i64 65, i64 0, ptr noundef nonnull @.str.16, i64 noundef %conv20, ptr noundef nonnull align 1 dereferenceable(1) %ref.tmp)
  %.pre = load i8, ptr %pendingEndStreamHandling_, align 1
  %7 = and i8 %.pre, 1
  br label %if.end21

if.end21:                                         ; preds = %if.then17, %if.end
  %8 = phi i8 [ %7, %if.then17 ], [ %or1, %if.end ]
  %tobool23.not = icmp ne i8 %8, 0
  %expectedContinuationStream_ = getelementptr inbounds i8, ptr %this, i64 536
  %9 = load i64, ptr %expectedContinuationStream_, align 8
  %cmp25 = icmp eq i64 %9, 0
  %or.cond = select i1 %tobool23.not, i1 %cmp25, i1 false
  br i1 %or.cond, label %if.then26, label %return

if.then26:                                        ; preds = %if.end21
  store i8 0, ptr %pendingEndStreamHandling_, align 1
  %stream29 = getelementptr inbounds i8, ptr %this, i64 524
  %10 = load i32, ptr %stream29, align 4
  %conv30 = zext i32 %10 to i64
  store i8 0, ptr %ref.tmp31, align 1
  %call33 = call noundef zeroext i1 @_ZN8proxygen17HTTPParallelCodec24deliverCallbackIfAllowedIMNS_9HTTPCodec8CallbackEFvmbEJbEEEbT_PKcmDpOT0_(ptr noundef nonnull align 8 dereferenceable(92) %this, i64 65, i64 0, ptr noundef nonnull @.str.16, i64 noundef %conv30, ptr noundef nonnull align 1 dereferenceable(1) %ref.tmp31)
  br label %return

return:                                           ; preds = %if.end21, %if.then26, %entry
  ret i8 0
}